target datalayout = "e-m:e-p270:32:32-p271:32:32-p272:64:64-i64:64-i128:128-f80:128-n8:16:32:64-S128"
target triple = "x86_64-pc-linux-gnu"

%struct.H5WB_t = type { ptr, i64, ptr, i64, i64 }

@.str = private unnamed_addr constant [98 x i8] c"generated/home/dtcxzyw/WorkSpace/Projects/compilers/llvm-opt-benchmark/bench/hdf5/hdf5/src/H5WB.c\00", align 1
@H5E_NOSPACE_g = external global i64, align 8
@__func__.H5WB_actual = private unnamed_addr constant [12 x i8] c"H5WB_actual\00", align 1
@H5E_ATTR_g = external global i64, align 8
@.str.2 = private unnamed_addr constant [25 x i8] c"memory allocation failed\00", align 1
@H5_extra_buf_blk_free_list = internal global { i8, [3 x i8], i32, i32, [4 x i8], i64, ptr, ptr } { i8 0, [3 x i8] zeroinitializer, i32 0, i32 0, [4 x i8] zeroinitializer, i64 0, ptr @.str.5, ptr null }, align 8

; Function Attrs: nounwind uwtable
define ptr @H5WB_actual(ptr noundef %0, i64 noundef %1) #0 {
  %3 = alloca ptr, align 8
  %4 = alloca i64, align 8
  %5 = alloca ptr, align 8
  %6 = alloca i8, align 1
  store ptr %0, ptr %3, align 8, !tbaa !9
  store i64 %1, ptr %4, align 8, !tbaa !7
  call void @llvm.lifetime.start.p0(i64 8, ptr %5) #4
  call void @llvm.lifetime.start.p0(i64 1, ptr %6) #4
  store i8 0, ptr %6, align 1, !tbaa !11
  %7 = load ptr, ptr %3, align 8, !tbaa !9
  %8 = getelementptr inbounds nuw %struct.H5WB_t, ptr %7, i32 0, i32 2
  %9 = load ptr, ptr %8, align 8, !tbaa !18
  %10 = icmp ne ptr %9, null
  br i1 %10, label %11, label %40

11:                                               ; preds = %2
  %12 = load ptr, ptr %3, align 8, !tbaa !9
  %13 = getelementptr inbounds nuw %struct.H5WB_t, ptr %12, i32 0, i32 2
  %14 = load ptr, ptr %13, align 8, !tbaa !18
  %15 = load ptr, ptr %3, align 8, !tbaa !9
  %16 = getelementptr inbounds nuw %struct.H5WB_t, ptr %15, i32 0, i32 0
  %17 = load ptr, ptr %16, align 8, !tbaa !15
  %18 = icmp ne ptr %14, %17
  br i1 %18, label %19, label %40

19:                                               ; preds = %11
  %20 = load i64, ptr %4, align 8, !tbaa !7
  %21 = load ptr, ptr %3, align 8, !tbaa !9
  %22 = getelementptr inbounds nuw %struct.H5WB_t, ptr %21, i32 0, i32 4
  %23 = load i64, ptr %22, align 8, !tbaa !20
  %24 = icmp ule i64 %20, %23
  br i1 %24, label %25, label %32

25:                                               ; preds = %19
  br label %26

26:                                               ; preds = %25
  %27 = load ptr, ptr %3, align 8, !tbaa !9
  %28 = getelementptr inbounds nuw %struct.H5WB_t, ptr %27, i32 0, i32 2
  %29 = load ptr, ptr %28, align 8, !tbaa !18
  store ptr %29, ptr %5, align 8, !tbaa !3
  br label %87

30:                                               ; No predecessors!
  br label %31

31:                                               ; preds = %30
  br label %39

32:                                               ; preds = %19
  %33 = load ptr, ptr %3, align 8, !tbaa !9
  %34 = getelementptr inbounds nuw %struct.H5WB_t, ptr %33, i32 0, i32 2
  %35 = load ptr, ptr %34, align 8, !tbaa !18
  %36 = call ptr @H5FL_blk_free(ptr noundef @H5_extra_buf_blk_free_list, ptr noundef %35)
  %37 = load ptr, ptr %3, align 8, !tbaa !9
  %38 = getelementptr inbounds nuw %struct.H5WB_t, ptr %37, i32 0, i32 2
  store ptr %36, ptr %38, align 8, !tbaa !18
  br label %39

39:                                               ; preds = %32, %31
  br label %40

40:                                               ; preds = %39, %11, %2
  %41 = load i64, ptr %4, align 8, !tbaa !7
  %42 = load ptr, ptr %3, align 8, !tbaa !9
  %43 = getelementptr inbounds nuw %struct.H5WB_t, ptr %42, i32 0, i32 1
  %44 = load i64, ptr %43, align 8, !tbaa !17
  %45 = icmp ugt i64 %41, %44
  br i1 %45, label %46, label %75

46:                                               ; preds = %40
  %47 = load i64, ptr %4, align 8, !tbaa !7
  %48 = call noalias ptr @H5FL_blk_malloc(ptr noundef @H5_extra_buf_blk_free_list, i64 noundef %47)
  %49 = load ptr, ptr %3, align 8, !tbaa !9
  %50 = getelementptr inbounds nuw %struct.H5WB_t, ptr %49, i32 0, i32 2
  store ptr %48, ptr %50, align 8, !tbaa !18
  %51 = icmp eq ptr null, %48
  br i1 %51, label %52, label %71

52:                                               ; preds = %46
  br label %53

53:                                               ; preds = %52
  br label %54

54:                                               ; preds = %53
  br label %55

55:                                               ; preds = %54
  %56 = load i64, ptr @H5E_ATTR_g, align 8, !tbaa !7
  %57 = load i64, ptr @H5E_NOSPACE_g, align 8, !tbaa !7
  %58 = call i32 (ptr, ptr, i32, i64, i64, ptr, ...) @H5E_printf_stack(ptr noundef @.str, ptr noundef @__func__.H5WB_actual, i32 noundef 168, i64 noundef %56, i64 noundef %57, ptr noundef @.str.2)
  br label %59

59:                                               ; preds = %55
  br label %60

60:                                               ; preds = %59
  store i8 1, ptr %6, align 1, !tbaa !11
  %61 = load i8, ptr %6, align 1, !tbaa !11, !range !13, !noundef !14
  %62 = trunc i8 %61 to i1
  %63 = zext i1 %62 to i8
  store i8 %63, ptr %6, align 1, !tbaa !11
  br label %64

64:                                               ; preds = %60
  br label %65

65:                                               ; preds = %64
  br label %66

66:                                               ; preds = %65
  store ptr null, ptr %5, align 8, !tbaa !3
  br label %87

67:                                               ; No predecessors!
  br label %68

68:                                               ; preds = %67
  br label %69

69:                                               ; preds = %68
  br label %70

70:                                               ; preds = %69
  br label %71

71:                                               ; preds = %70, %46
  %72 = load i64, ptr %4, align 8, !tbaa !7
  %73 = load ptr, ptr %3, align 8, !tbaa !9
  %74 = getelementptr inbounds nuw %struct.H5WB_t, ptr %73, i32 0, i32 4
  store i64 %72, ptr %74, align 8, !tbaa !20
  br label %83

75:                                               ; preds = %40
  %76 = load ptr, ptr %3, align 8, !tbaa !9
  %77 = getelementptr inbounds nuw %struct.H5WB_t, ptr %76, i32 0, i32 0
  %78 = load ptr, ptr %77, align 8, !tbaa !15
  %79 = load ptr, ptr %3, align 8, !tbaa !9
  %80 = getelementptr inbounds nuw %struct.H5WB_t, ptr %79, i32 0, i32 2
  store ptr %78, ptr %80, align 8, !tbaa !18
  %81 = load ptr, ptr %3, align 8, !tbaa !9
  %82 = getelementptr inbounds nuw %struct.H5WB_t, ptr %81, i32 0, i32 4
  store i64 0, ptr %82, align 8, !tbaa !20
  br label %83

83:                                               ; preds = %75, %71
  %84 = load ptr, ptr %3, align 8, !tbaa !9
  %85 = getelementptr inbounds nuw %struct.H5WB_t, ptr %84, i32 0, i32 2
  %86 = load ptr, ptr %85, align 8, !tbaa !18
  store ptr %86, ptr %5, align 8, !tbaa !3
  br label %87

87:                                               ; preds = %83, %66, %26
  %88 = load ptr, ptr %5, align 8, !tbaa !3
  %89 = icmp ne ptr %88, null
  br i1 %89, label %90, label %94

90:                                               ; preds = %87
  %91 = load i64, ptr %4, align 8, !tbaa !7
  %92 = load ptr, ptr %3, align 8, !tbaa !9
  %93 = getelementptr inbounds nuw %struct.H5WB_t, ptr %92, i32 0, i32 3
  store i64 %91, ptr %93, align 8, !tbaa !19
  br label %94

94:                                               ; preds = %90, %87
  %95 = load ptr, ptr %5, align 8, !tbaa !3
  call void @llvm.lifetime.end.p0(i64 1, ptr %6) #4
  call void @llvm.lifetime.end.p0(i64 8, ptr %5) #4
  ret ptr %95
}